target datalayout = "e-m:e-p270:32:32-p271:32:32-p272:64:64-i64:64-i128:128-f80:128-n8:16:32:64-S128"
target triple = "x86_64-pc-linux-gnu"

%struct.except_t = type { %struct.except_id_t, ptr, ptr }
%struct.except_id_t = type { i64, i64 }

@stderr = external global ptr, align 8
@.str.1 = private unnamed_addr constant [43 x i8] c"Unhandled exception (group=%lu, code=%lu)\0A\00", align 1
@.str.2 = private unnamed_addr constant [49 x i8] c"Unhandled exception (\22%s\22, group=%lu, code=%lu)\0A\00", align 1

; Function Attrs: nounwind uwtable
define internal void @unhandled_catcher(ptr noundef %0) #0 {
  %2 = alloca ptr, align 8
  store ptr %0, ptr %2, align 8
  %3 = load ptr, ptr %2, align 8
  %4 = getelementptr inbounds %struct.except_t, ptr %3, i32 0, i32 1
  %5 = load volatile ptr, ptr %4, align 8
  %6 = icmp eq ptr %5, null
  br i1 %6, label %7, label %18

7:                                                ; preds = %1
  %8 = load ptr, ptr @stderr, align 8
  %9 = load ptr, ptr %2, align 8
  %10 = getelementptr inbounds %struct.except_t, ptr %9, i32 0, i32 0
  %11 = getelementptr inbounds %struct.except_id_t, ptr %10, i32 0, i32 0
  %12 = load volatile i64, ptr %11, align 8
  %13 = load ptr, ptr %2, align 8
  %14 = getelementptr inbounds %struct.except_t, ptr %13, i32 0, i32 0
  %15 = getelementptr inbounds %struct.except_id_t, ptr %14, i32 0, i32 1
  %16 = load volatile i64, ptr %15, align 8
  %17 = call i32 (ptr, ptr, ...) @fprintf(ptr noundef %8, ptr noundef @.str.1, i64 noundef %12, i64 noundef %16) #11
  br label %32

18:                                               ; preds = %1
  %19 = load ptr, ptr @stderr, align 8
  %20 = load ptr, ptr %2, align 8
  %21 = getelementptr inbounds %struct.except_t, ptr %20, i32 0, i32 1
  %22 = load volatile ptr, ptr %21, align 8
  %23 = load ptr, ptr %2, align 8
  %24 = getelementptr inbounds %struct.except_t, ptr %23, i32 0, i32 0
  %25 = getelementptr inbounds %struct.except_id_t, ptr %24, i32 0, i32 0
  %26 = load volatile i64, ptr %25, align 8
  %27 = load ptr, ptr %2, align 8
  %28 = getelementptr inbounds %struct.except_t, ptr %27, i32 0, i32 0
  %29 = getelementptr inbounds %struct.except_id_t, ptr %28, i32 0, i32 1
  %30 = load volatile i64, ptr %29, align 8
  %31 = call i32 (ptr, ptr, ...) @fprintf(ptr noundef %19, ptr noundef @.str.2, ptr noundef %22, i64 noundef %26, i64 noundef %30) #11
  br label %32

32:                                               ; preds = %18, %7
  call void @abort() #10
  unreachable
}