; Function Attrs: cold nofree noreturn nounwind uwtable
define internal void @unhandled_catcher(ptr noundef %0) #14 {
  %2 = getelementptr inbounds nuw i8, ptr %0, i64 16
  %3 = load volatile ptr, ptr %2, align 8
  %4 = icmp eq ptr %3, null
  %5 = load ptr, ptr @stderr, align 8
  br i1 %4, label %6, label %11

6:                                                ; preds = %1
  %7 = load volatile i64, ptr %0, align 8
  %8 = getelementptr inbounds nuw i8, ptr %0, i64 8
  %9 = load volatile i64, ptr %8, align 8
  %10 = tail call i32 (ptr, ptr, ...) @fprintf(ptr noundef %5, ptr noundef nonnull @.str.1, i64 noundef %7, i64 noundef %9) #21
  br label %17

11:                                               ; preds = %1
  %12 = load volatile ptr, ptr %2, align 8
  %13 = load volatile i64, ptr %0, align 8
  %14 = getelementptr inbounds nuw i8, ptr %0, i64 8
  %15 = load volatile i64, ptr %14, align 8
  %16 = tail call i32 (ptr, ptr, ...) @fprintf(ptr noundef %5, ptr noundef nonnull @.str.2, ptr noundef %12, i64 noundef %13, i64 noundef %15) #21
  br label %17

17:                                               ; preds = %11, %6
  tail call void @abort() #20
  unreachable
}